target datalayout = "e-m:e-p270:32:32-p271:32:32-p272:64:64-i64:64-i128:128-f80:128-n8:16:32:64-S128"
target triple = "x86_64-pc-linux-gnu"

%struct.hyperLogLogState = type { i8, i64, double, ptr, i64 }

; Function Attrs: nounwind uwtable
define dso_local double @estimateHyperLogLog(ptr noundef %0) #0 {
  %2 = alloca ptr, align 8
  %3 = alloca double, align 8
  %4 = alloca double, align 8
  %5 = alloca i32, align 4
  %6 = alloca i32, align 4
  store ptr %0, ptr %2, align 8
  call void @llvm.lifetime.start.p0(i64 8, ptr %3) #7
  call void @llvm.lifetime.start.p0(i64 8, ptr %4) #7
  store double 0.000000e+00, ptr %4, align 8
  call void @llvm.lifetime.start.p0(i64 4, ptr %5) #7
  store i32 0, ptr %5, align 4
  br label %7

7:                                                ; preds = %27, %1
  %8 = load i32, ptr %5, align 4
  %9 = sext i32 %8 to i64
  %10 = load ptr, ptr %2, align 8
  %11 = getelementptr inbounds nuw %struct.hyperLogLogState, ptr %10, i32 0, i32 1
  %12 = load i64, ptr %11, align 8
  %13 = icmp ult i64 %9, %12
  br i1 %13, label %14, label %30

14:                                               ; preds = %7
  %15 = load ptr, ptr %2, align 8
  %16 = getelementptr inbounds nuw %struct.hyperLogLogState, ptr %15, i32 0, i32 3
  %17 = load ptr, ptr %16, align 8
  %18 = load i32, ptr %5, align 4
  %19 = sext i32 %18 to i64
  %20 = getelementptr inbounds i8, ptr %17, i64 %19
  %21 = load i8, ptr %20, align 1
  %22 = uitofp i8 %21 to double
  %23 = call double @pow(double noundef 2.000000e+00, double noundef %22) #7
  %24 = fdiv double 1.000000e+00, %23
  %25 = load double, ptr %4, align 8
  %26 = fadd double %25, %24
  store double %26, ptr %4, align 8
  br label %27

27:                                               ; preds = %14
  %28 = load i32, ptr %5, align 4
  %29 = add i32 %28, 1
  store i32 %29, ptr %5, align 4
  br label %7, !llvm.loop !6

30:                                               ; preds = %7
  %31 = load ptr, ptr %2, align 8
  %32 = getelementptr inbounds nuw %struct.hyperLogLogState, ptr %31, i32 0, i32 2
  %33 = load double, ptr %32, align 8
  %34 = load double, ptr %4, align 8
  %35 = fdiv double %33, %34
  store double %35, ptr %3, align 8
  %36 = load double, ptr %3, align 8
  %37 = load ptr, ptr %2, align 8
  %38 = getelementptr inbounds nuw %struct.hyperLogLogState, ptr %37, i32 0, i32 1
  %39 = load i64, ptr %38, align 8
  %40 = uitofp i64 %39 to double
  %41 = fmul double 2.500000e+00, %40
  %42 = fcmp ole double %36, %41
  br i1 %42, label %43, label %86

43:                                               ; preds = %30
  call void @llvm.lifetime.start.p0(i64 4, ptr %6) #7
  store i32 0, ptr %6, align 4
  store i32 0, ptr %5, align 4
  br label %44

44:                                               ; preds = %65, %43
  %45 = load i32, ptr %5, align 4
  %46 = sext i32 %45 to i64
  %47 = load ptr, ptr %2, align 8
  %48 = getelementptr inbounds nuw %struct.hyperLogLogState, ptr %47, i32 0, i32 1
  %49 = load i64, ptr %48, align 8
  %50 = icmp ult i64 %46, %49
  br i1 %50, label %51, label %68

51:                                               ; preds = %44
  %52 = load ptr, ptr %2, align 8
  %53 = getelementptr inbounds nuw %struct.hyperLogLogState, ptr %52, i32 0, i32 3
  %54 = load ptr, ptr %53, align 8
  %55 = load i32, ptr %5, align 4
  %56 = sext i32 %55 to i64
  %57 = getelementptr inbounds i8, ptr %54, i64 %56
  %58 = load i8, ptr %57, align 1
  %59 = zext i8 %58 to i32
  %60 = icmp eq i32 %59, 0
  br i1 %60, label %61, label %64

61:                                               ; preds = %51
  %62 = load i32, ptr %6, align 4
  %63 = add i32 %62, 1
  store i32 %63, ptr %6, align 4
  br label %64

64:                                               ; preds = %61, %51
  br label %65

65:                                               ; preds = %64
  %66 = load i32, ptr %5, align 4
  %67 = add i32 %66, 1
  store i32 %67, ptr %5, align 4
  br label %44, !llvm.loop !7

68:                                               ; preds = %44
  %69 = load i32, ptr %6, align 4
  %70 = icmp ne i32 %69, 0
  br i1 %70, label %71, label %85

71:                                               ; preds = %68
  %72 = load ptr, ptr %2, align 8
  %73 = getelementptr inbounds nuw %struct.hyperLogLogState, ptr %72, i32 0, i32 1
  %74 = load i64, ptr %73, align 8
  %75 = uitofp i64 %74 to double
  %76 = load ptr, ptr %2, align 8
  %77 = getelementptr inbounds nuw %struct.hyperLogLogState, ptr %76, i32 0, i32 1
  %78 = load i64, ptr %77, align 8
  %79 = uitofp i64 %78 to double
  %80 = load i32, ptr %6, align 4
  %81 = sitofp i32 %80 to double
  %82 = fdiv double %79, %81
  %83 = call double @log(double noundef %82) #7
  %84 = fmul double %75, %83
  store double %84, ptr %3, align 8
  br label %85

85:                                               ; preds = %71, %68
  call void @llvm.lifetime.end.p0(i64 4, ptr %6) #7
  br label %96

86:                                               ; preds = %30
  %87 = load double, ptr %3, align 8
  %88 = fcmp ogt double %87, 0x41A1111111111111
  br i1 %88, label %89, label %95

89:                                               ; preds = %86
  %90 = load double, ptr %3, align 8
  %91 = fdiv double %90, 0x41F0000000000000
  %92 = fsub double 1.000000e+00, %91
  %93 = call double @log(double noundef %92) #7
  %94 = fmul double 0xC1F0000000000000, %93
  store double %94, ptr %3, align 8
  br label %95

95:                                               ; preds = %89, %86
  br label %96

96:                                               ; preds = %95, %85
  %97 = load double, ptr %3, align 8
  call void @llvm.lifetime.end.p0(i64 4, ptr %5) #7
  call void @llvm.lifetime.end.p0(i64 8, ptr %4) #7
  call void @llvm.lifetime.end.p0(i64 8, ptr %3) #7
  ret double %97
}